target datalayout = "e-m:e-p270:32:32-p271:32:32-p272:64:64-i64:64-i128:128-f80:128-n8:16:32:64-S128"
target triple = "x86_64-pc-linux-gnu"

%"class.std::__cxx11::basic_string" = type { %"struct.std::__cxx11::basic_string<char>::_Alloc_hider", i64, %union.anon }
%"struct.std::__cxx11::basic_string<char>::_Alloc_hider" = type { ptr }
%union.anon = type { i64, [8 x i8] }
%"struct.Assimp::COB::ChunkInfo" = type { i32, i32, i32, i32 }
%"class.Assimp::LineSplitter" = type <{ i64, %"class.std::__cxx11::basic_string", ptr, ptr, i8, i8, i8, [5 x i8] }>

@.str.90 = private unnamed_addr constant [5 x i8] c"BitM\00", align 1
@.str.91 = private unnamed_addr constant [49 x i8] c"Unexpected ThumbNailHdrSize, skipping this chunk\00", align 1
@.str.103 = private unnamed_addr constant [38 x i8] c"Token index out of range, EOL reached\00", align 1
@_ZTISt11range_error = external constant ptr

; Function Attrs: inlinehint mustprogress nounwind uwtable
define linkonce_odr hidden noundef zeroext i1 @_ZN6Assimp10SkipSpacesIcEEbPKT_PS3_S3_(ptr noundef %0, ptr noundef %1, ptr noundef %2) #11 comdat {
  %4 = alloca ptr, align 8
  %5 = alloca ptr, align 8
  %6 = alloca ptr, align 8
  store ptr %0, ptr %4, align 8
  store ptr %1, ptr %5, align 8
  store ptr %2, ptr %6, align 8
  br label %7

7:                                                ; preds = %23, %3
  %8 = load ptr, ptr %4, align 8
  %9 = load i8, ptr %8, align 1
  %10 = sext i8 %9 to i32
  %11 = icmp eq i32 %10, 32
  br i1 %11, label %17, label %12

12:                                               ; preds = %7
  %13 = load ptr, ptr %4, align 8
  %14 = load i8, ptr %13, align 1
  %15 = sext i8 %14 to i32
  %16 = icmp eq i32 %15, 9
  br i1 %16, label %17, label %21

17:                                               ; preds = %12, %7
  %18 = load ptr, ptr %4, align 8
  %19 = load ptr, ptr %6, align 8
  %20 = icmp ne ptr %18, %19
  br label %21

21:                                               ; preds = %17, %12
  %22 = phi i1 [ false, %12 ], [ %20, %17 ]
  br i1 %22, label %23, label %26

23:                                               ; preds = %21
  %24 = load ptr, ptr %4, align 8
  %25 = getelementptr inbounds nuw i8, ptr %24, i32 1
  store ptr %25, ptr %4, align 8
  br label %7, !llvm.loop !31

26:                                               ; preds = %21
  %27 = load ptr, ptr %4, align 8
  %28 = load ptr, ptr %5, align 8
  store ptr %27, ptr %28, align 8
  %29 = load ptr, ptr %4, align 8
  %30 = load i8, ptr %29, align 1
  %31 = call noundef zeroext i1 @_ZN6Assimp9IsLineEndIcEEbT_(i8 noundef signext %30)
  %32 = xor i1 %31, true
  ret i1 %32
}

; Function Attrs: mustprogress nounwind uwtable
define available_externally noundef ptr @_ZNKSt7__cxx1112basic_stringIcSt11char_traitsIcESaIcEE7_M_dataEv(ptr noundef nonnull align 8 dereferenceable(32) %0) #3 align 2 {
  %2 = alloca ptr, align 8
  store ptr %0, ptr %2, align 8
  %3 = load ptr, ptr %2, align 8
  %4 = getelementptr inbounds nuw %"class.std::__cxx11::basic_string", ptr %3, i32 0, i32 0
  %5 = getelementptr inbounds nuw %"struct.std::__cxx11::basic_string<char>::_Alloc_hider", ptr %4, i32 0, i32 0
  %6 = load ptr, ptr %5, align 8
  ret ptr %6
}

; Function Attrs: inlinehint mustprogress nounwind uwtable
define linkonce_odr hidden noundef zeroext i1 @_ZN6Assimp9IsLineEndIcEEbT_(i8 noundef signext %0) #11 comdat {
  %2 = alloca i8, align 1
  store i8 %0, ptr %2, align 1
  %3 = load i8, ptr %2, align 1
  %4 = sext i8 %3 to i32
  %5 = icmp eq i32 %4, 13
  br i1 %5, label %18, label %6

6:                                                ; preds = %1
  %7 = load i8, ptr %2, align 1
  %8 = sext i8 %7 to i32
  %9 = icmp eq i32 %8, 10
  br i1 %9, label %18, label %10

10:                                               ; preds = %6
  %11 = load i8, ptr %2, align 1
  %12 = sext i8 %11 to i32
  %13 = icmp eq i32 %12, 0
  br i1 %13, label %18, label %14

14:                                               ; preds = %10
  %15 = load i8, ptr %2, align 1
  %16 = sext i8 %15 to i32
  %17 = icmp eq i32 %16, 12
  br label %18

18:                                               ; preds = %14, %10, %6, %1
  %19 = phi i1 [ true, %10 ], [ true, %6 ], [ true, %1 ], [ %17, %14 ]
  ret i1 %19
}

; Function Attrs: inlinehint mustprogress nounwind uwtable
define linkonce_odr hidden noundef zeroext i1 @_ZN6Assimp7IsSpaceIcEEbT_(i8 noundef signext %0) #11 comdat {
  %2 = alloca i8, align 1
  store i8 %0, ptr %2, align 1
  %3 = load i8, ptr %2, align 1
  %4 = sext i8 %3 to i32
  %5 = icmp eq i32 %4, 32
  br i1 %5, label %10, label %6

6:                                                ; preds = %1
  %7 = load i8, ptr %2, align 1
  %8 = sext i8 %7 to i32
  %9 = icmp eq i32 %8, 9
  br label %10

10:                                               ; preds = %6, %1
  %11 = phi i1 [ true, %1 ], [ %9, %6 ]
  ret i1 %11
}

; Function Attrs: inlinehint mustprogress uwtable
define linkonce_odr hidden noundef zeroext i1 @_ZN6Assimp10SkipSpacesIcEEbPPKT_S3_(ptr noundef %0, ptr noundef %1) #7 comdat {
  %3 = alloca ptr, align 8
  %4 = alloca ptr, align 8
  store ptr %0, ptr %3, align 8
  store ptr %1, ptr %4, align 8
  %5 = load ptr, ptr %3, align 8
  %6 = load ptr, ptr %5, align 8
  %7 = load ptr, ptr %3, align 8
  %8 = load ptr, ptr %4, align 8
  %9 = call noundef zeroext i1 @_ZN6Assimp10SkipSpacesIcEEbPKT_PS3_S3_(ptr noundef %6, ptr noundef %7, ptr noundef %8)
  ret i1 %9
}

; Function Attrs: mustprogress nounwind uwtable
define available_externally noundef ptr @_ZNKSt7__cxx1112basic_stringIcSt11char_traitsIcESaIcEE5c_strEv(ptr noundef nonnull align 8 dereferenceable(32) %0) #3 align 2 {
  %2 = alloca ptr, align 8
  store ptr %0, ptr %2, align 8
  %3 = load ptr, ptr %2, align 8
  %4 = call noundef ptr @_ZNKSt7__cxx1112basic_stringIcSt11char_traitsIcESaIcEE7_M_dataEv(ptr noundef nonnull align 8 dereferenceable(32) %3)
  ret ptr %4
}

; Function Attrs: inlinehint mustprogress nounwind uwtable
define linkonce_odr hidden noundef ptr @_ZNK6Assimp12LineSplitterptB5cxx11Ev(ptr noundef nonnull align 8 dereferenceable(59) %0) #11 comdat align 2 {
  %2 = alloca ptr, align 8
  store ptr %0, ptr %2, align 8
  %3 = load ptr, ptr %2, align 8
  %4 = getelementptr inbounds nuw %"class.Assimp::LineSplitter", ptr %3, i32 0, i32 1
  ret ptr %4
}

; Function Attrs: inlinehint mustprogress nounwind uwtable
define linkonce_odr hidden noundef i32 @_ZN6Assimp9strtoul10EPKcPS1_(ptr noundef %0, ptr noundef %1) #11 comdat {
  %3 = alloca ptr, align 8
  %4 = alloca ptr, align 8
  %5 = alloca i32, align 4
  store ptr %0, ptr %3, align 8
  store ptr %1, ptr %4, align 8
  call void @llvm.lifetime.start.p0(i64 4, ptr %5) #22
  store i32 0, ptr %5, align 4
  br label %6

6:                                                ; preds = %17, %2
  %7 = load ptr, ptr %3, align 8
  %8 = load i8, ptr %7, align 1
  %9 = sext i8 %8 to i32
  %10 = icmp slt i32 %9, 48
  br i1 %10, label %16, label %11

11:                                               ; preds = %6
  %12 = load ptr, ptr %3, align 8
  %13 = load i8, ptr %12, align 1
  %14 = sext i8 %13 to i32
  %15 = icmp sgt i32 %14, 57
  br i1 %15, label %16, label %17

16:                                               ; preds = %11, %6
  br label %27

17:                                               ; preds = %11
  %18 = load i32, ptr %5, align 4
  %19 = mul i32 %18, 10
  %20 = load ptr, ptr %3, align 8
  %21 = load i8, ptr %20, align 1
  %22 = sext i8 %21 to i32
  %23 = sub nsw i32 %22, 48
  %24 = add i32 %19, %23
  store i32 %24, ptr %5, align 4
  %25 = load ptr, ptr %3, align 8
  %26 = getelementptr inbounds nuw i8, ptr %25, i32 1
  store ptr %26, ptr %3, align 8
  br label %6, !llvm.loop !21

27:                                               ; preds = %16
  %28 = load ptr, ptr %4, align 8
  %29 = icmp ne ptr %28, null
  br i1 %29, label %30, label %33

30:                                               ; preds = %27
  %31 = load ptr, ptr %3, align 8
  %32 = load ptr, ptr %4, align 8
  store ptr %31, ptr %32, align 8
  br label %33

33:                                               ; preds = %30, %27
  %34 = load i32, ptr %5, align 4
  call void @llvm.lifetime.end.p0(i64 4, ptr %5) #22
  ret i32 %34
}

; Function Attrs: inlinehint mustprogress uwtable
define linkonce_odr hidden noundef ptr @_ZNK6Assimp12LineSplitterixEm(ptr noundef nonnull align 8 dereferenceable(59) %0, i64 noundef %1) #7 comdat align 2 personality ptr @__gxx_personality_v0 {
  %3 = alloca ptr, align 8
  %4 = alloca i64, align 8
  %5 = alloca ptr, align 8
  %6 = alloca i64, align 8
  %7 = alloca ptr, align 8
  %8 = alloca i32, align 4
  store ptr %0, ptr %3, align 8
  store i64 %1, ptr %4, align 8
  %9 = load ptr, ptr %3, align 8
  call void @llvm.lifetime.start.p0(i64 8, ptr %5) #22
  %10 = call noundef ptr @_ZNK6Assimp12LineSplitterptB5cxx11Ev(ptr noundef nonnull align 8 dereferenceable(59) %9)
  %11 = call noundef ptr @_ZNKSt7__cxx1112basic_stringIcSt11char_traitsIcESaIcEE5c_strEv(ptr noundef nonnull align 8 dereferenceable(32) %10) #22
  store ptr %11, ptr %5, align 8
  %12 = getelementptr inbounds nuw %"class.Assimp::LineSplitter", ptr %9, i32 0, i32 2
  %13 = load ptr, ptr %12, align 8
  %14 = call noundef zeroext i1 @_ZN6Assimp10SkipSpacesIcEEbPPKT_S3_(ptr noundef %5, ptr noundef %13)
  call void @llvm.lifetime.start.p0(i64 8, ptr %6) #22
  store i64 0, ptr %6, align 8
  br label %15

15:                                               ; preds = %45, %2
  %16 = load i64, ptr %6, align 8
  %17 = load i64, ptr %4, align 8
  %18 = icmp ult i64 %16, %17
  br i1 %18, label %20, label %19

19:                                               ; preds = %15
  call void @llvm.lifetime.end.p0(i64 8, ptr %6) #22
  br label %48

20:                                               ; preds = %15
  br label %21

21:                                               ; preds = %38, %20
  %22 = load ptr, ptr %5, align 8
  %23 = load i8, ptr %22, align 1
  %24 = call noundef zeroext i1 @_ZN6Assimp7IsSpaceIcEEbT_(i8 noundef signext %23)
  %25 = xor i1 %24, true
  br i1 %25, label %26, label %41

26:                                               ; preds = %21
  %27 = load ptr, ptr %5, align 8
  %28 = load i8, ptr %27, align 1
  %29 = call noundef zeroext i1 @_ZN6Assimp9IsLineEndIcEEbT_(i8 noundef signext %28)
  br i1 %29, label %30, label %37

30:                                               ; preds = %26
  %31 = call ptr @__cxa_allocate_exception(i64 16) #22
  invoke void @_ZNSt11range_errorC1EPKc(ptr noundef nonnull align 8 dereferenceable(16) %31, ptr noundef @.str.103)
          to label %32 unwind label %33

32:                                               ; preds = %30
  call void @__cxa_throw(ptr %31, ptr @_ZTISt11range_error, ptr @_ZNSt11range_errorD1Ev) #23
  unreachable

33:                                               ; preds = %30
  %34 = landingpad { ptr, i32 }
          cleanup
  %35 = extractvalue { ptr, i32 } %34, 0
  store ptr %35, ptr %7, align 8
  %36 = extractvalue { ptr, i32 } %34, 1
  store i32 %36, ptr %8, align 4
  call void @__cxa_free_exception(ptr %31) #22
  call void @llvm.lifetime.end.p0(i64 8, ptr %6) #22
  call void @llvm.lifetime.end.p0(i64 8, ptr %5) #22
  br label %50

37:                                               ; preds = %26
  br label %38

38:                                               ; preds = %37
  %39 = load ptr, ptr %5, align 8
  %40 = getelementptr inbounds nuw i8, ptr %39, i32 1
  store ptr %40, ptr %5, align 8
  br label %21, !llvm.loop !25

41:                                               ; preds = %21
  %42 = getelementptr inbounds nuw %"class.Assimp::LineSplitter", ptr %9, i32 0, i32 2
  %43 = load ptr, ptr %42, align 8
  %44 = call noundef zeroext i1 @_ZN6Assimp10SkipSpacesIcEEbPPKT_S3_(ptr noundef %5, ptr noundef %43)
  br label %45

45:                                               ; preds = %41
  %46 = load i64, ptr %6, align 8
  %47 = add i64 %46, 1
  store i64 %47, ptr %6, align 8
  br label %15, !llvm.loop !26

48:                                               ; preds = %19
  %49 = load ptr, ptr %5, align 8
  call void @llvm.lifetime.end.p0(i64 8, ptr %5) #22
  ret ptr %49

50:                                               ; preds = %33
  %51 = load ptr, ptr %7, align 8
  %52 = load i32, ptr %8, align 4
  %53 = insertvalue { ptr, i32 } poison, ptr %51, 0
  %54 = insertvalue { ptr, i32 } %53, i32 %52, 1
  resume { ptr, i32 } %54
}

; Function Attrs: mustprogress uwtable
define hidden void @_ZN6Assimp11COBImporter14ReadBitM_AsciiERNS_3COB5SceneERNS_12LineSplitterERKNS1_9ChunkInfoE(ptr noundef nonnull align 8 dereferenceable(72) %0, ptr noundef nonnull align 8 dereferenceable(160) %1, ptr noundef nonnull align 8 dereferenceable(59) %2, ptr noundef nonnull align 4 dereferenceable(16) %3) #1 align 2 {
  %5 = alloca ptr, align 8
  %6 = alloca ptr, align 8
  %7 = alloca ptr, align 8
  %8 = alloca ptr, align 8
  %9 = alloca i32, align 4
  %10 = alloca i32, align 4
  store ptr %0, ptr %5, align 8
  store ptr %1, ptr %6, align 8
  store ptr %2, ptr %7, align 8
  store ptr %3, ptr %8, align 8
  %11 = load ptr, ptr %5, align 8
  %12 = load ptr, ptr %8, align 8
  %13 = getelementptr inbounds nuw %"struct.Assimp::COB::ChunkInfo", ptr %12, i32 0, i32 2
  %14 = load i32, ptr %13, align 4
  %15 = icmp ugt i32 %14, 1
  br i1 %15, label %16, label %19

16:                                               ; preds = %4
  %17 = load ptr, ptr %7, align 8
  %18 = load ptr, ptr %8, align 8
  call void @_ZN6Assimp11COBImporter22UnsupportedChunk_AsciiERNS_12LineSplitterERKNS_3COB9ChunkInfoEPKc(ptr noundef nonnull align 8 dereferenceable(72) %11, ptr noundef nonnull align 8 dereferenceable(59) %17, ptr noundef nonnull align 4 dereferenceable(16) %18, ptr noundef @.str.90)
  br label %32

19:                                               ; preds = %4
  call void @llvm.lifetime.start.p0(i64 4, ptr %9) #22
  %20 = load ptr, ptr %7, align 8
  %21 = call noundef nonnull align 8 dereferenceable(59) ptr @_ZN6Assimp12LineSplitterppEv(ptr noundef nonnull align 8 dereferenceable(59) %20)
  %22 = call noundef ptr @_ZNK6Assimp12LineSplitterixEm(ptr noundef nonnull align 8 dereferenceable(59) %21, i64 noundef 1)
  %23 = call noundef i32 @_ZN6Assimp9strtoul10EPKcPS1_(ptr noundef %22, ptr noundef null)
  store i32 %23, ptr %9, align 4
  %24 = load i32, ptr %9, align 4
  %25 = zext i32 %24 to i64
  %26 = icmp ne i64 %25, 1
  br i1 %26, label %27, label %29

27:                                               ; preds = %19
  %28 = call noundef ptr @_ZN6Assimp13DefaultLogger3getEv()
  call void @_ZN6Assimp6Logger4warnEPKc(ptr noundef nonnull align 8 dereferenceable(12) %28, ptr noundef @.str.91)
  store i32 1, ptr %10, align 4
  br label %30

29:                                               ; preds = %19
  store i32 0, ptr %10, align 4
  br label %30

30:                                               ; preds = %29, %27
  call void @llvm.lifetime.end.p0(i64 4, ptr %9) #22
  %31 = load i32, ptr %10, align 4
  switch i32 %31, label %33 [
    i32 0, label %32
    i32 1, label %32
  ]

32:                                               ; preds = %16, %30, %30
  ret void

33:                                               ; preds = %30
  unreachable
}