; Function Attrs: mustprogress uwtable
define hidden void @_ZN6Assimp11COBImporter14ReadBitM_AsciiERNS_3COB5SceneERNS_12LineSplitterERKNS1_9ChunkInfoE(ptr noundef nonnull readnone align 8 captures(none) dereferenceable(72) %0, ptr nonnull readnone align 8 captures(none) %1, ptr noundef nonnull align 8 dereferenceable(59) %2, ptr noundef nonnull readonly align 4 captures(none) dereferenceable(16) %3) local_unnamed_addr #0 align 2 personality ptr @__gxx_personality_v0 {
  %5 = getelementptr inbounds nuw i8, ptr %3, i64 8
  %6 = load i32, ptr %5, align 4
  %7 = icmp ugt i32 %6, 1
  br i1 %7, label %8, label %9

8:                                                ; preds = %4
  tail call void @_ZN6Assimp11COBImporter22UnsupportedChunk_AsciiERNS_12LineSplitterERKNS_3COB9ChunkInfoEPKc(ptr nonnull align 8 poison, ptr noundef nonnull align 8 dereferenceable(59) %2, ptr noundef nonnull align 4 dereferenceable(16) %3, ptr noundef nonnull @.str.90)
  br label %48

9:                                                ; preds = %4
  %10 = tail call noundef nonnull align 8 dereferenceable(59) ptr @_ZN6Assimp12LineSplitterppEv(ptr noundef nonnull align 8 dereferenceable(59) %2)
  %11 = getelementptr inbounds nuw i8, ptr %10, i64 8
  %12 = load ptr, ptr %11, align 8
  %13 = getelementptr inbounds nuw i8, ptr %10, i64 40
  %14 = load ptr, ptr %13, align 8
  %15 = ptrtoint ptr %12 to i64
  %16 = ptrtoint ptr %14 to i64
  %17 = sub i64 %16, %15
  %scevgep.i.i.i = getelementptr i8, ptr %12, i64 %17
  br label %18

18:                                               ; preds = %21, %9
  %.0.i.i.i = phi ptr [ %12, %9 ], [ %22, %21 ]
  %19 = load i8, ptr %.0.i.i.i, align 1
  switch i8 %19, label %_ZN6Assimp10SkipSpacesIcEEbPPKT_S3_.exit.i.preheader [
    i8 32, label %20
    i8 9, label %20
  ]

_ZN6Assimp10SkipSpacesIcEEbPPKT_S3_.exit.i.preheader: ; preds = %20, %18
  %.1.i.ph = phi ptr [ %scevgep.i.i.i, %20 ], [ %.0.i.i.i, %18 ]
  br label %_ZN6Assimp10SkipSpacesIcEEbPPKT_S3_.exit.i

20:                                               ; preds = %18, %18
  %.not.i.i.i = icmp eq ptr %.0.i.i.i, %14
  br i1 %.not.i.i.i, label %_ZN6Assimp10SkipSpacesIcEEbPPKT_S3_.exit.i.preheader, label %21

21:                                               ; preds = %20
  %22 = getelementptr inbounds nuw i8, ptr %.0.i.i.i, i64 1
  br label %18, !llvm.loop !58

_ZN6Assimp10SkipSpacesIcEEbPPKT_S3_.exit.i:       ; preds = %_ZN6Assimp10SkipSpacesIcEEbPPKT_S3_.exit.i.preheader, %_ZN6Assimp9IsLineEndIcEEbT_.exit.i
  %.1.i = phi ptr [ %29, %_ZN6Assimp9IsLineEndIcEEbT_.exit.i ], [ %.1.i.ph, %_ZN6Assimp10SkipSpacesIcEEbPPKT_S3_.exit.i.preheader ]
  %23 = load i8, ptr %.1.i, align 1
  switch i8 %23, label %_ZN6Assimp9IsLineEndIcEEbT_.exit.i [
    i8 32, label %30
    i8 9, label %30
    i8 13, label %24
    i8 10, label %24
    i8 0, label %24
    i8 12, label %24
  ]

24:                                               ; preds = %_ZN6Assimp10SkipSpacesIcEEbPPKT_S3_.exit.i, %_ZN6Assimp10SkipSpacesIcEEbPPKT_S3_.exit.i, %_ZN6Assimp10SkipSpacesIcEEbPPKT_S3_.exit.i, %_ZN6Assimp10SkipSpacesIcEEbPPKT_S3_.exit.i
  %25 = tail call ptr @__cxa_allocate_exception(i64 16) #27
  invoke void @_ZNSt11range_errorC1EPKc(ptr noundef nonnull align 8 dereferenceable(16) %25, ptr noundef nonnull @.str.103)
          to label %26 unwind label %27

26:                                               ; preds = %24
  tail call void @__cxa_throw(ptr nonnull %25, ptr nonnull @_ZTISt11range_error, ptr nonnull @_ZNSt11range_errorD1Ev) #28
  unreachable

27:                                               ; preds = %24
  %28 = landingpad { ptr, i32 }
          cleanup
  tail call void @__cxa_free_exception(ptr nonnull %25) #27
  resume { ptr, i32 } %28

_ZN6Assimp9IsLineEndIcEEbT_.exit.i:               ; preds = %_ZN6Assimp10SkipSpacesIcEEbPPKT_S3_.exit.i
  %29 = getelementptr inbounds nuw i8, ptr %.1.i, i64 1
  br label %_ZN6Assimp10SkipSpacesIcEEbPPKT_S3_.exit.i, !llvm.loop !65

30:                                               ; preds = %_ZN6Assimp10SkipSpacesIcEEbPPKT_S3_.exit.i, %_ZN6Assimp10SkipSpacesIcEEbPPKT_S3_.exit.i
  %31 = ptrtoint ptr %.1.i to i64
  %32 = sub i64 %16, %31
  %scevgep.i.i5.i = getelementptr i8, ptr %.1.i, i64 %32
  br label %33

33:                                               ; preds = %36, %30
  %34 = phi i8 [ %23, %30 ], [ %.pre.i, %36 ]
  %.0.i.i6.i = phi ptr [ %.1.i, %30 ], [ %37, %36 ]
  switch i8 %34, label %_ZN6Assimp10SkipSpacesIcEEbPPKT_S3_.exit10.i [
    i8 32, label %35
    i8 9, label %35
  ]

35:                                               ; preds = %33, %33
  %.not.i.i7.i = icmp eq ptr %.0.i.i6.i, %14
  br i1 %.not.i.i7.i, label %._ZN6Assimp10SkipSpacesIcEEbPPKT_S3_.exit10.i_crit_edge, label %36

._ZN6Assimp10SkipSpacesIcEEbPPKT_S3_.exit10.i_crit_edge: ; preds = %35
  %.pre = load i8, ptr %scevgep.i.i5.i, align 1
  br label %_ZN6Assimp10SkipSpacesIcEEbPPKT_S3_.exit10.i

36:                                               ; preds = %35
  %37 = getelementptr inbounds nuw i8, ptr %.0.i.i6.i, i64 1
  %.pre.i = load i8, ptr %37, align 1
  br label %33, !llvm.loop !58

_ZN6Assimp10SkipSpacesIcEEbPPKT_S3_.exit10.i:     ; preds = %33, %._ZN6Assimp10SkipSpacesIcEEbPPKT_S3_.exit10.i_crit_edge
  %38 = phi i8 [ %.pre, %._ZN6Assimp10SkipSpacesIcEEbPPKT_S3_.exit10.i_crit_edge ], [ %34, %33 ]
  %.0.lcssa.i.i9.i = phi ptr [ %scevgep.i.i5.i, %._ZN6Assimp10SkipSpacesIcEEbPPKT_S3_.exit10.i_crit_edge ], [ %.0.i.i6.i, %33 ]
  %39 = add i8 %38, -58
  %or.cond11.i = icmp ult i8 %39, -10
  br i1 %or.cond11.i, label %_ZN6Assimp9strtoul10EPKcPS1_.exit.thread, label %.lr.ph.i

.lr.ph.i:                                         ; preds = %_ZN6Assimp10SkipSpacesIcEEbPPKT_S3_.exit10.i, %.lr.ph.i
  %40 = phi i8 [ %45, %.lr.ph.i ], [ %38, %_ZN6Assimp10SkipSpacesIcEEbPPKT_S3_.exit10.i ]
  %.013.i = phi i32 [ %43, %.lr.ph.i ], [ 0, %_ZN6Assimp10SkipSpacesIcEEbPPKT_S3_.exit10.i ]
  %.0812.i = phi ptr [ %44, %.lr.ph.i ], [ %.0.lcssa.i.i9.i, %_ZN6Assimp10SkipSpacesIcEEbPPKT_S3_.exit10.i ]
  %41 = mul i32 %.013.i, 10
  %narrow.i = add nsw i8 %40, -48
  %42 = zext nneg i8 %narrow.i to i32
  %43 = add i32 %41, %42
  %44 = getelementptr inbounds nuw i8, ptr %.0812.i, i64 1
  %45 = load i8, ptr %44, align 1
  %46 = add i8 %45, -58
  %or.cond.i = icmp ult i8 %46, -10
  br i1 %or.cond.i, label %_ZN6Assimp9strtoul10EPKcPS1_.exit, label %.lr.ph.i, !llvm.loop !61

_ZN6Assimp9strtoul10EPKcPS1_.exit:                ; preds = %.lr.ph.i
  %.not = icmp eq i32 %43, 1
  br i1 %.not, label %48, label %_ZN6Assimp9strtoul10EPKcPS1_.exit.thread

_ZN6Assimp9strtoul10EPKcPS1_.exit.thread:         ; preds = %_ZN6Assimp10SkipSpacesIcEEbPPKT_S3_.exit10.i, %_ZN6Assimp9strtoul10EPKcPS1_.exit
  %47 = tail call noundef ptr @_ZN6Assimp13DefaultLogger3getEv()
  tail call void @_ZN6Assimp6Logger4warnEPKc(ptr noundef nonnull align 8 dereferenceable(12) %47, ptr noundef nonnull @.str.91)
  br label %48

48:                                               ; preds = %_ZN6Assimp9strtoul10EPKcPS1_.exit.thread, %_ZN6Assimp9strtoul10EPKcPS1_.exit, %8
  ret void
}